target datalayout = "e-m:e-p270:32:32-p271:32:32-p272:64:64-i64:64-i128:128-f80:128-n8:16:32:64-S128"
target triple = "x86_64-pc-linux-gnu"

%struct.slurm_conf_t = type { i64, ptr, i16, ptr, ptr, ptr, ptr, ptr, i16, ptr, ptr, ptr, ptr, ptr, ptr, ptr, i16, ptr, ptr, ptr, ptr, i16, ptr, ptr, ptr, i64, ptr, ptr, ptr, ptr, i16, ptr, ptr, i16, i32, ptr, i32, ptr, i32, i32, ptr, ptr, i64, i64, ptr, i16, i16, ptr, i32, i32, ptr, i32, ptr, i32, i16, i16, i16, ptr, i16, i16, ptr, ptr, i32, i16, i16, ptr, i32, i16, ptr, ptr, ptr, ptr, i16, ptr, ptr, ptr, ptr, i32, ptr, ptr, ptr, ptr, i16, i16, ptr, i32, i32, i32, i16, i16, ptr, ptr, i16, ptr, ptr, i32, i32, i32, i32, i32, i64, i32, i32, i16, ptr, ptr, i32, ptr, ptr, ptr, i16, i32, ptr, ptr, i16, ptr, ptr, i32, i16, ptr, ptr, ptr, ptr, i32, i32, i16, i16, i32, ptr, i16, ptr, i32, i32, i32, i32, i32, i32, ptr, i16, ptr, ptr, i32, i16, ptr, i32, i16, i16, ptr, ptr, ptr, i16, ptr, ptr, ptr, ptr, i16, i16, ptr, i16, ptr, i16, ptr, i16, ptr, i16, ptr, ptr, ptr, ptr, i16, ptr, ptr, ptr, i32, ptr, i32, ptr, ptr, i16, ptr, ptr, i32, i16, ptr, ptr, i16, i16, ptr, i16, ptr, ptr, ptr, i32, ptr, i16, i16, ptr, ptr, ptr, ptr, ptr, ptr, ptr, ptr, i16, i32, i16, ptr, ptr, ptr, ptr, i32, ptr, ptr, ptr, i16, ptr, ptr, ptr, i16, ptr, i16, ptr, i16, i16, ptr }
%union.pthread_mutex_t = type { %struct.__pthread_mutex_s }
%struct.__pthread_mutex_s = type { i32, i32, i32, i32, i32, i16, i16, %struct.__pthread_internal_list }
%struct.__pthread_internal_list = type { ptr, ptr }
%struct.slurmdbd_conn_t = type { ptr, ptr, %union.pthread_mutex_t, ptr, ptr }
%struct.persist_conn_t = type { ptr, i32, i32, i8, ptr, ptr, ptr, i64, i16, i32, i16, i8, i32, i32, ptr, i16, ptr, i64, i32, ptr, %struct.slurm_trigger_callbacks_t, i16 }
%struct.slurm_trigger_callbacks_t = type { ptr, ptr, ptr, ptr, ptr }
%struct.persist_msg_t = type { ptr, ptr, i16 }
%struct.dbd_list_msg_t = type { ptr, i32 }
%struct.dbd_cond_msg_t = type { ptr }

@slurm_conf = external global %struct.slurm_conf_t, align 8
@.str.14 = private unnamed_addr constant [32 x i8] c"Request didn't affect anything\0A\00", align 1
@.str.15 = private unnamed_addr constant [31 x i8] c"Request didn't affect anything\00", align 1
@.str.16 = private unnamed_addr constant [11 x i8] c"CONN:%d %s\00", align 1
@.str.17 = private unnamed_addr constant [57 x i8] c"Your user doesn't have privilege to perform this action\0A\00", align 1
@.str.18 = private unnamed_addr constant [37 x i8] c"Something was wrong with your query\0A\00", align 1
@.str.19 = private unnamed_addr constant [30 x i8] c"QOS Preemption loop detected\0A\00", align 1
@.str.20 = private unnamed_addr constant [15 x i8] c"Unknown issue\0A\00", align 1
@.str.21 = private unnamed_addr constant [56 x i8] c"Your user doesn't have privilege to perform this action\00", align 1
@.str.22 = private unnamed_addr constant [36 x i8] c"Something was wrong with your query\00", align 1
@.str.23 = private unnamed_addr constant [29 x i8] c"QOS Preemption loop detected\00", align 1
@.str.24 = private unnamed_addr constant [14 x i8] c"Unknown issue\00", align 1
@.str.78 = private unnamed_addr constant [34 x i8] c"DBD_GET_WCKEYS: called in CONN %d\00", align 1

; Function Attrs: nounwind uwtable
define internal ptr @_internal_rc_to_str(i32 noundef %0, i32 noundef %1, i1 noundef zeroext %2) #0 {
  %4 = alloca ptr, align 8
  %5 = alloca i32, align 4
  %6 = alloca i32, align 4
  %7 = alloca i8, align 1
  %8 = alloca ptr, align 8
  %9 = alloca i32, align 4
  store i32 %0, ptr %5, align 4
  store i32 %1, ptr %6, align 4
  %10 = zext i1 %2 to i8
  store i8 %10, ptr %7, align 1
  call void @llvm.lifetime.start.p0(i64 8, ptr %8) #8
  store ptr null, ptr %8, align 8
  %11 = load i32, ptr %5, align 4
  %12 = icmp eq i32 %11, 1900
  br i1 %12, label %13, label %32

13:                                               ; preds = %3
  %14 = load i8, ptr %7, align 1, !range !8, !noundef !9
  %15 = trunc i8 %14 to i1
  br i1 %15, label %16, label %17

16:                                               ; preds = %13
  store ptr @.str.14, ptr %8, align 8
  br label %18

17:                                               ; preds = %13
  store ptr @.str.15, ptr %8, align 8
  br label %18

18:                                               ; preds = %17, %16
  br label %19

19:                                               ; preds = %18
  br label %20

20:                                               ; preds = %19
  %21 = call i32 @get_log_level()
  %22 = icmp sge i32 %21, 6
  br i1 %22, label %23, label %26

23:                                               ; preds = %20
  %24 = load i32, ptr %6, align 4
  %25 = load ptr, ptr %8, align 8
  call void (i32, ptr, ...) @log_var(i32 noundef 6, ptr noundef @.str.16, i32 noundef %24, ptr noundef %25)
  br label %26

26:                                               ; preds = %23, %20
  br label %27

27:                                               ; preds = %26
  br label %28

28:                                               ; preds = %27
  br label %29

29:                                               ; preds = %28
  br label %30

30:                                               ; preds = %29
  %31 = load ptr, ptr %8, align 8
  store ptr %31, ptr %4, align 8
  store i32 1, ptr %9, align 4
  br label %96

32:                                               ; preds = %3
  %33 = load i8, ptr %7, align 1, !range !8, !noundef !9
  %34 = trunc i8 %33 to i1
  br i1 %34, label %35, label %63

35:                                               ; preds = %32
  %36 = load i32, ptr %5, align 4
  %37 = icmp eq i32 %36, 2002
  br i1 %37, label %38, label %39

38:                                               ; preds = %35
  store ptr @.str.17, ptr %8, align 8
  br label %62

39:                                               ; preds = %35
  %40 = load i32, ptr %5, align 4
  %41 = icmp eq i32 %40, -1
  br i1 %41, label %42, label %43

42:                                               ; preds = %39
  store ptr @.str.18, ptr %8, align 8
  br label %61

43:                                               ; preds = %39
  %44 = load i32, ptr %5, align 4
  %45 = icmp eq i32 %44, 7000
  br i1 %45, label %46, label %49

46:                                               ; preds = %43
  %47 = load i32, ptr %5, align 4
  %48 = call ptr @slurm_strerror(i32 noundef %47)
  store ptr %48, ptr %8, align 8
  br label %60

49:                                               ; preds = %43
  %50 = load i32, ptr %5, align 4
  %51 = icmp eq i32 %50, 2067
  br i1 %51, label %52, label %53

52:                                               ; preds = %49
  store ptr @.str.19, ptr %8, align 8
  br label %59

53:                                               ; preds = %49
  %54 = load i32, ptr %5, align 4
  %55 = call ptr @slurm_strerror(i32 noundef %54)
  store ptr %55, ptr %8, align 8
  %56 = icmp ne ptr %55, null
  br i1 %56, label %58, label %57

57:                                               ; preds = %53
  store ptr @.str.20, ptr %8, align 8
  br label %58

58:                                               ; preds = %57, %53
  br label %59

59:                                               ; preds = %58, %52
  br label %60

60:                                               ; preds = %59, %46
  br label %61

61:                                               ; preds = %60, %42
  br label %62

62:                                               ; preds = %61, %38
  br label %91

63:                                               ; preds = %32
  %64 = load i32, ptr %5, align 4
  %65 = icmp eq i32 %64, 2002
  br i1 %65, label %66, label %67

66:                                               ; preds = %63
  store ptr @.str.21, ptr %8, align 8
  br label %90

67:                                               ; preds = %63
  %68 = load i32, ptr %5, align 4
  %69 = icmp eq i32 %68, -1
  br i1 %69, label %70, label %71

70:                                               ; preds = %67
  store ptr @.str.22, ptr %8, align 8
  br label %89

71:                                               ; preds = %67
  %72 = load i32, ptr %5, align 4
  %73 = icmp eq i32 %72, 7000
  br i1 %73, label %74, label %77

74:                                               ; preds = %71
  %75 = load i32, ptr %5, align 4
  %76 = call ptr @slurm_strerror(i32 noundef %75)
  store ptr %76, ptr %8, align 8
  br label %88

77:                                               ; preds = %71
  %78 = load i32, ptr %5, align 4
  %79 = icmp eq i32 %78, 2067
  br i1 %79, label %80, label %81

80:                                               ; preds = %77
  store ptr @.str.23, ptr %8, align 8
  br label %87

81:                                               ; preds = %77
  %82 = load i32, ptr %5, align 4
  %83 = call ptr @slurm_strerror(i32 noundef %82)
  store ptr %83, ptr %8, align 8
  %84 = icmp ne ptr %83, null
  br i1 %84, label %86, label %85

85:                                               ; preds = %81
  store ptr @.str.24, ptr %8, align 8
  br label %86

86:                                               ; preds = %85, %81
  br label %87

87:                                               ; preds = %86, %80
  br label %88

88:                                               ; preds = %87, %74
  br label %89

89:                                               ; preds = %88, %70
  br label %90

90:                                               ; preds = %89, %66
  br label %91

91:                                               ; preds = %90, %62
  %92 = load i32, ptr %6, align 4
  %93 = load ptr, ptr %8, align 8
  %94 = call i32 (ptr, ...) @error(ptr noundef @.str.16, i32 noundef %92, ptr noundef %93)
  %95 = load ptr, ptr %8, align 8
  store ptr %95, ptr %4, align 8
  store i32 1, ptr %9, align 4
  br label %96

96:                                               ; preds = %91, %30
  call void @llvm.lifetime.end.p0(i64 8, ptr %8) #8
  %97 = load ptr, ptr %4, align 8
  ret ptr %97
}

; Function Attrs: nounwind uwtable
define internal zeroext i1 @_validate_operator(ptr noundef %0) #0 {
  %2 = alloca i1, align 1
  %3 = alloca ptr, align 8
  %4 = alloca i32, align 4
  %5 = alloca i32, align 4
  store ptr %0, ptr %3, align 8
  call void @llvm.lifetime.start.p0(i64 4, ptr %4) #8
  %6 = load ptr, ptr %3, align 8
  %7 = getelementptr inbounds nuw %struct.slurmdbd_conn_t, ptr %6, i32 0, i32 0
  %8 = load ptr, ptr %7, align 8
  %9 = getelementptr inbounds nuw %struct.persist_conn_t, ptr %8, i32 0, i32 1
  %10 = load i32, ptr %9, align 8
  store i32 %10, ptr %4, align 4
  %11 = load i32, ptr %4, align 4
  %12 = icmp eq i32 %11, 0
  br i1 %12, label %22, label %13

13:                                               ; preds = %1
  %14 = load i32, ptr %4, align 4
  %15 = load i32, ptr getelementptr inbounds nuw (%struct.slurm_conf_t, ptr @slurm_conf, i32 0, i32 173), align 8
  %16 = icmp eq i32 %14, %15
  br i1 %16, label %22, label %17

17:                                               ; preds = %13
  %18 = load ptr, ptr %3, align 8
  %19 = load i32, ptr %4, align 4
  %20 = call i32 @assoc_mgr_get_admin_level(ptr noundef %18, i32 noundef %19)
  %21 = icmp uge i32 %20, 2
  br i1 %21, label %22, label %23

22:                                               ; preds = %17, %13, %1
  store i1 true, ptr %2, align 1
  store i32 1, ptr %5, align 4
  br label %24

23:                                               ; preds = %17
  store i1 false, ptr %2, align 1
  store i32 1, ptr %5, align 4
  br label %24

24:                                               ; preds = %23, %22
  call void @llvm.lifetime.end.p0(i64 4, ptr %4) #8
  %25 = load i1, ptr %2, align 1
  ret i1 %25
}

; Function Attrs: nounwind uwtable
define internal i32 @_get_wckeys(ptr noundef %0, ptr noundef %1, ptr noundef %2) #0 {
  %4 = alloca i32, align 4
  %5 = alloca ptr, align 8
  %6 = alloca ptr, align 8
  %7 = alloca ptr, align 8
  %8 = alloca ptr, align 8
  %9 = alloca %struct.dbd_list_msg_t, align 8
  %10 = alloca ptr, align 8
  %11 = alloca i32, align 4
  %12 = alloca i32, align 4
  %13 = alloca i32, align 4
  store ptr %0, ptr %5, align 8
  store ptr %1, ptr %6, align 8
  store ptr %2, ptr %7, align 8
  call void @llvm.lifetime.start.p0(i64 8, ptr %8) #8
  %14 = load ptr, ptr %6, align 8
  %15 = getelementptr inbounds nuw %struct.persist_msg_t, ptr %14, i32 0, i32 1
  %16 = load ptr, ptr %15, align 8
  store ptr %16, ptr %8, align 8
  call void @llvm.lifetime.start.p0(i64 16, ptr %9) #8
  call void @llvm.memset.p0.i64(ptr align 8 %9, i8 0, i64 16, i1 false)
  call void @llvm.lifetime.start.p0(i64 8, ptr %10) #8
  store ptr null, ptr %10, align 8
  call void @llvm.lifetime.start.p0(i64 4, ptr %11) #8
  store i32 0, ptr %11, align 4
  br label %17

17:                                               ; preds = %3
  br label %18

18:                                               ; preds = %17
  %19 = call i32 @get_log_level()
  %20 = icmp sge i32 %19, 6
  br i1 %20, label %21, label %27

21:                                               ; preds = %18
  %22 = load ptr, ptr %5, align 8
  %23 = getelementptr inbounds nuw %struct.slurmdbd_conn_t, ptr %22, i32 0, i32 0
  %24 = load ptr, ptr %23, align 8
  %25 = getelementptr inbounds nuw %struct.persist_conn_t, ptr %24, i32 0, i32 9
  %26 = load i32, ptr %25, align 4
  call void (i32, ptr, ...) @log_var(i32 noundef 6, ptr noundef @.str.78, i32 noundef %26)
  br label %27

27:                                               ; preds = %21, %18
  br label %28

28:                                               ; preds = %27
  br label %29

29:                                               ; preds = %28
  br label %30

30:                                               ; preds = %29
  br label %31

31:                                               ; preds = %30
  %32 = load ptr, ptr %5, align 8
  %33 = call zeroext i1 @_validate_operator(ptr noundef %32)
  br i1 %33, label %50, label %34

34:                                               ; preds = %31
  call void @llvm.lifetime.start.p0(i64 4, ptr %12) #8
  store i32 2002, ptr %12, align 4
  %35 = load i32, ptr %12, align 4
  %36 = load ptr, ptr %5, align 8
  %37 = getelementptr inbounds nuw %struct.slurmdbd_conn_t, ptr %36, i32 0, i32 0
  %38 = load ptr, ptr %37, align 8
  %39 = getelementptr inbounds nuw %struct.persist_conn_t, ptr %38, i32 0, i32 9
  %40 = load i32, ptr %39, align 4
  %41 = call ptr @_internal_rc_to_str(i32 noundef %35, i32 noundef %40, i1 noundef zeroext false)
  store ptr %41, ptr %10, align 8
  %42 = load ptr, ptr %5, align 8
  %43 = getelementptr inbounds nuw %struct.slurmdbd_conn_t, ptr %42, i32 0, i32 0
  %44 = load ptr, ptr %43, align 8
  %45 = load i32, ptr %12, align 4
  %46 = load ptr, ptr %10, align 8
  %47 = call ptr @slurm_persist_make_rc_msg(ptr noundef %44, i32 noundef %45, ptr noundef %46, i16 noundef zeroext 1453)
  %48 = load ptr, ptr %7, align 8
  store ptr %47, ptr %48, align 8
  %49 = load i32, ptr %12, align 4
  store i32 %49, ptr %4, align 4
  store i32 1, ptr %13, align 4
  call void @llvm.lifetime.end.p0(i64 4, ptr %12) #8
  br label %110

50:                                               ; preds = %31
  %51 = load ptr, ptr %5, align 8
  %52 = getelementptr inbounds nuw %struct.slurmdbd_conn_t, ptr %51, i32 0, i32 3
  %53 = load ptr, ptr %52, align 8
  %54 = load ptr, ptr %5, align 8
  %55 = getelementptr inbounds nuw %struct.slurmdbd_conn_t, ptr %54, i32 0, i32 0
  %56 = load ptr, ptr %55, align 8
  %57 = getelementptr inbounds nuw %struct.persist_conn_t, ptr %56, i32 0, i32 1
  %58 = load i32, ptr %57, align 8
  %59 = load ptr, ptr %8, align 8
  %60 = getelementptr inbounds nuw %struct.dbd_cond_msg_t, ptr %59, i32 0, i32 0
  %61 = load ptr, ptr %60, align 8
  %62 = call ptr @acct_storage_g_get_wckeys(ptr noundef %53, i32 noundef %58, ptr noundef %61)
  %63 = getelementptr inbounds nuw %struct.dbd_list_msg_t, ptr %9, i32 0, i32 0
  store ptr %62, ptr %63, align 8
  %64 = call ptr @__errno_location() #10
  %65 = load i32, ptr %64, align 4
  %66 = icmp ne i32 %65, 0
  br i1 %66, label %86, label %67

67:                                               ; preds = %50
  %68 = getelementptr inbounds nuw %struct.dbd_list_msg_t, ptr %9, i32 0, i32 0
  %69 = load ptr, ptr %68, align 8
  %70 = icmp ne ptr %69, null
  br i1 %70, label %74, label %71

71:                                               ; preds = %67
  %72 = call ptr @list_create(ptr noundef null)
  %73 = getelementptr inbounds nuw %struct.dbd_list_msg_t, ptr %9, i32 0, i32 0
  store ptr %72, ptr %73, align 8
  br label %74

74:                                               ; preds = %71, %67
  %75 = call ptr @init_buf(i32 noundef 1024)
  %76 = load ptr, ptr %7, align 8
  store ptr %75, ptr %76, align 8
  %77 = load ptr, ptr %7, align 8
  %78 = load ptr, ptr %77, align 8
  call void @pack16(i16 noundef zeroext 1454, ptr noundef %78)
  %79 = load ptr, ptr %5, align 8
  %80 = getelementptr inbounds nuw %struct.slurmdbd_conn_t, ptr %79, i32 0, i32 0
  %81 = load ptr, ptr %80, align 8
  %82 = getelementptr inbounds nuw %struct.persist_conn_t, ptr %81, i32 0, i32 21
  %83 = load i16, ptr %82, align 8
  %84 = load ptr, ptr %7, align 8
  %85 = load ptr, ptr %84, align 8
  call void @slurmdbd_pack_list_msg(ptr noundef %9, i16 noundef zeroext %83, i32 noundef 1454, ptr noundef %85)
  br label %97

86:                                               ; preds = %50
  %87 = load ptr, ptr %5, align 8
  %88 = getelementptr inbounds nuw %struct.slurmdbd_conn_t, ptr %87, i32 0, i32 0
  %89 = load ptr, ptr %88, align 8
  %90 = call ptr @__errno_location() #10
  %91 = load i32, ptr %90, align 4
  %92 = call ptr @__errno_location() #10
  %93 = load i32, ptr %92, align 4
  %94 = call ptr @slurm_strerror(i32 noundef %93)
  %95 = call ptr @slurm_persist_make_rc_msg(ptr noundef %89, i32 noundef %91, ptr noundef %94, i16 noundef zeroext 1453)
  %96 = load ptr, ptr %7, align 8
  store ptr %95, ptr %96, align 8
  store i32 -1, ptr %11, align 4
  br label %97

97:                                               ; preds = %86, %74
  br label %98

98:                                               ; preds = %97
  %99 = getelementptr inbounds nuw %struct.dbd_list_msg_t, ptr %9, i32 0, i32 0
  %100 = load ptr, ptr %99, align 8
  %101 = icmp ne ptr %100, null
  br i1 %101, label %102, label %105

102:                                              ; preds = %98
  %103 = getelementptr inbounds nuw %struct.dbd_list_msg_t, ptr %9, i32 0, i32 0
  %104 = load ptr, ptr %103, align 8
  call void @list_destroy(ptr noundef %104)
  br label %105

105:                                              ; preds = %102, %98
  %106 = getelementptr inbounds nuw %struct.dbd_list_msg_t, ptr %9, i32 0, i32 0
  store ptr null, ptr %106, align 8
  br label %107

107:                                              ; preds = %105
  br label %108

108:                                              ; preds = %107
  %109 = load i32, ptr %11, align 4
  store i32 %109, ptr %4, align 4
  store i32 1, ptr %13, align 4
  br label %110

110:                                              ; preds = %108, %34
  call void @llvm.lifetime.end.p0(i64 4, ptr %11) #8
  call void @llvm.lifetime.end.p0(i64 8, ptr %10) #8
  call void @llvm.lifetime.end.p0(i64 16, ptr %9) #8
  call void @llvm.lifetime.end.p0(i64 8, ptr %8) #8
  %111 = load i32, ptr %4, align 4
  ret i32 %111
}