; Function Attrs: nounwind uwtable
define internal fastcc range(i32 -1, 2003) i32 @_get_wckeys(ptr noundef %0, ptr readonly captures(none) %.8.val, ptr noundef captures(none) initializes((0, 8)) %1) unnamed_addr #0 {
  %3 = alloca %struct.dbd_list_msg_t, align 8
  call void @llvm.lifetime.start.p0(i64 16, ptr nonnull %3) #10
  %4 = getelementptr inbounds nuw i8, ptr %3, i64 8
  store i64 0, ptr %4, align 8
  %5 = tail call i32 @get_log_level() #10
  %6 = icmp sgt i32 %5, 5
  br i1 %6, label %7, label %11

7:                                                ; preds = %2
  %8 = load ptr, ptr %0, align 8
  %9 = getelementptr inbounds nuw i8, ptr %8, i64 60
  %10 = load i32, ptr %9, align 4
  tail call void (i32, ptr, ...) @log_var(i32 noundef 6, ptr noundef nonnull @.str.78, i32 noundef %10) #10
  br label %11

11:                                               ; preds = %7, %2
  %12 = load ptr, ptr %0, align 8
  %13 = getelementptr inbounds nuw i8, ptr %12, i64 8
  %14 = load i32, ptr %13, align 8
  %15 = icmp eq i32 %14, 0
  %16 = load i32, ptr getelementptr inbounds nuw (i8, ptr @slurm_conf, i64 1152), align 8
  %17 = icmp eq i32 %14, %16
  %or.cond.i = select i1 %15, i1 true, i1 %17
  br i1 %or.cond.i, label %_validate_operator.exit.thread, label %_validate_operator.exit

_validate_operator.exit:                          ; preds = %11
  %18 = tail call i32 @assoc_mgr_get_admin_level(ptr noundef nonnull %0, i32 noundef %14) #10
  %19 = icmp ugt i32 %18, 1
  %.pre = load ptr, ptr %0, align 8
  br i1 %19, label %_validate_operator.exit._validate_operator.exit.thread_crit_edge, label %20

_validate_operator.exit._validate_operator.exit.thread_crit_edge: ; preds = %_validate_operator.exit
  %.phi.trans.insert = getelementptr inbounds nuw i8, ptr %.pre, i64 8
  %.pre2 = load i32, ptr %.phi.trans.insert, align 8
  br label %_validate_operator.exit.thread

20:                                               ; preds = %_validate_operator.exit
  %21 = getelementptr inbounds nuw i8, ptr %.pre, i64 60
  %22 = load i32, ptr %21, align 4
  %23 = tail call i32 (ptr, ...) @error(ptr noundef nonnull @.str.16, i32 noundef %22, ptr noundef nonnull @.str.21) #10
  %24 = load ptr, ptr %0, align 8
  %25 = tail call ptr @slurm_persist_make_rc_msg(ptr noundef %24, i32 noundef 2002, ptr noundef nonnull @.str.21, i16 noundef zeroext 1453) #10
  store ptr %25, ptr %1, align 8
  br label %49

_validate_operator.exit.thread:                   ; preds = %_validate_operator.exit._validate_operator.exit.thread_crit_edge, %11
  %26 = phi i32 [ %14, %11 ], [ %.pre2, %_validate_operator.exit._validate_operator.exit.thread_crit_edge ]
  %27 = getelementptr inbounds nuw i8, ptr %0, i64 56
  %28 = load ptr, ptr %27, align 8
  %29 = load ptr, ptr %.8.val, align 8
  %30 = tail call ptr @acct_storage_g_get_wckeys(ptr noundef %28, i32 noundef %26, ptr noundef %29) #10
  store ptr %30, ptr %3, align 8
  %31 = tail call ptr @__errno_location() #12
  %32 = load i32, ptr %31, align 4
  %.not = icmp eq i32 %32, 0
  br i1 %.not, label %33, label %42

33:                                               ; preds = %_validate_operator.exit.thread
  %.not23 = icmp eq ptr %30, null
  br i1 %.not23, label %34, label %36

34:                                               ; preds = %33
  %35 = tail call ptr @list_create(ptr noundef null) #10
  store ptr %35, ptr %3, align 8
  br label %36

36:                                               ; preds = %34, %33
  %37 = tail call ptr @init_buf(i32 noundef 1024) #10
  store ptr %37, ptr %1, align 8
  tail call void @pack16(i16 noundef zeroext 1454, ptr noundef %37) #10
  %38 = load ptr, ptr %0, align 8
  %39 = getelementptr inbounds nuw i8, ptr %38, i64 168
  %40 = load i16, ptr %39, align 8
  %41 = load ptr, ptr %1, align 8
  call void @slurmdbd_pack_list_msg(ptr noundef nonnull %3, i16 noundef zeroext %40, i32 noundef 1454, ptr noundef %41) #10
  %.pre3 = load ptr, ptr %3, align 8
  br label %46

42:                                               ; preds = %_validate_operator.exit.thread
  %43 = load ptr, ptr %0, align 8
  %44 = tail call ptr @slurm_strerror(i32 noundef %32) #10
  %45 = tail call ptr @slurm_persist_make_rc_msg(ptr noundef %43, i32 noundef %32, ptr noundef %44, i16 noundef zeroext 1453) #10
  store ptr %45, ptr %1, align 8
  br label %46

46:                                               ; preds = %36, %42
  %47 = phi ptr [ %30, %42 ], [ %.pre3, %36 ]
  %.020 = phi i32 [ -1, %42 ], [ 0, %36 ]
  %.not24 = icmp eq ptr %47, null
  br i1 %.not24, label %49, label %48

48:                                               ; preds = %46
  call void @list_destroy(ptr noundef nonnull %47) #10
  br label %49

49:                                               ; preds = %46, %48, %20
  %.0 = phi i32 [ 2002, %20 ], [ %.020, %48 ], [ %.020, %46 ]
  call void @llvm.lifetime.end.p0(i64 16, ptr nonnull %3) #10
  ret i32 %.0
}